target datalayout = "e-m:e-p270:32:32-p271:32:32-p272:64:64-i64:64-i128:128-f80:128-n8:16:32:64-S128"
target triple = "x86_64-pc-linux-gnu"

%class.LIR_Opr = type { i64 }
%class.Instruction = type { ptr, i32, i32, i32, ptr, ptr, ptr, %class.LIR_Opr, i32, ptr, ptr, ptr, ptr }
%class.IntConstant = type <{ %class.IntType, i32, [4 x i8] }>
%class.IntType = type { %class.ValueType }
%class.ValueType = type { ptr, i32, i32 }
%class.LongConstant = type { %class.LongType, i64 }
%class.LongType = type { %class.ValueType }
%class.FloatConstant = type <{ %class.FloatType, float, [4 x i8] }>
%class.FloatType = type { %class.ValueType }
%class.DoubleConstant = type { %class.DoubleType, double }
%class.DoubleType = type { %class.ValueType }

; Function Attrs: mustprogress nounwind uwtable
define linkonce_odr hidden noundef i64 @_Z10jlong_castd(double noundef %0) #1 comdat {
  %2 = alloca double, align 8
  store double %0, ptr %2, align 8
  %3 = load i64, ptr %2, align 8
  ret i64 %3
}

; Function Attrs: mustprogress nounwind uwtable
define linkonce_odr hidden noundef double @_ZNK14DoubleConstant5valueEv(ptr noundef nonnull align 8 dereferenceable(24) %0) #1 comdat align 2 {
  %2 = alloca ptr, align 8
  store ptr %0, ptr %2, align 8
  %3 = load ptr, ptr %2, align 8
  %4 = getelementptr inbounds %class.DoubleConstant, ptr %3, i32 0, i32 1
  %5 = load double, ptr %4, align 8
  ret double %5
}

; Function Attrs: mustprogress nounwind uwtable
define linkonce_odr hidden noundef i32 @_Z9jint_castf(float noundef %0) #1 comdat {
  %2 = alloca float, align 4
  store float %0, ptr %2, align 4
  %3 = load i32, ptr %2, align 4
  ret i32 %3
}

; Function Attrs: mustprogress nounwind uwtable
define linkonce_odr hidden noundef float @_ZNK13FloatConstant5valueEv(ptr noundef nonnull align 8 dereferenceable(20) %0) #1 comdat align 2 {
  %2 = alloca ptr, align 8
  store ptr %0, ptr %2, align 8
  %3 = load ptr, ptr %2, align 8
  %4 = getelementptr inbounds %class.FloatConstant, ptr %3, i32 0, i32 1
  %5 = load float, ptr %4, align 8
  ret float %5
}

; Function Attrs: mustprogress nounwind uwtable
define linkonce_odr hidden noundef i64 @_ZNK12LongConstant5valueEv(ptr noundef nonnull align 8 dereferenceable(24) %0) #1 comdat align 2 {
  %2 = alloca ptr, align 8
  store ptr %0, ptr %2, align 8
  %3 = load ptr, ptr %2, align 8
  %4 = getelementptr inbounds %class.LongConstant, ptr %3, i32 0, i32 1
  %5 = load i64, ptr %4, align 8
  ret i64 %5
}

; Function Attrs: mustprogress nounwind uwtable
define linkonce_odr hidden noundef i32 @_ZNK11IntConstant5valueEv(ptr noundef nonnull align 8 dereferenceable(20) %0) #1 comdat align 2 {
  %2 = alloca ptr, align 8
  store ptr %0, ptr %2, align 8
  %3 = load ptr, ptr %2, align 8
  %4 = getelementptr inbounds %class.IntConstant, ptr %3, i32 0, i32 1
  %5 = load i32, ptr %4, align 8
  ret i32 %5
}

; Function Attrs: mustprogress nounwind uwtable
define linkonce_odr hidden noundef i32 @_ZNK9ValueType3tagEv(ptr noundef nonnull align 8 dereferenceable(16) %0) #1 comdat align 2 {
  %2 = alloca ptr, align 8
  store ptr %0, ptr %2, align 8
  %3 = load ptr, ptr %2, align 8
  %4 = getelementptr inbounds %class.ValueType, ptr %3, i32 0, i32 2
  %5 = load i32, ptr %4, align 4
  ret i32 %5
}

; Function Attrs: mustprogress nounwind uwtable
define linkonce_odr hidden noundef ptr @_ZNK11Instruction4typeEv(ptr noundef nonnull align 8 dereferenceable(96) %0) #1 comdat align 2 {
  %2 = alloca ptr, align 8
  store ptr %0, ptr %2, align 8
  %3 = load ptr, ptr %2, align 8
  %4 = getelementptr inbounds %class.Instruction, ptr %3, i32 0, i32 4
  %5 = load ptr, ptr %4, align 8
  ret ptr %5
}

; Function Attrs: mustprogress nounwind uwtable
define hidden noundef zeroext i1 @_ZNK8Constant8is_equalEP11Instruction(ptr noundef nonnull align 8 dereferenceable(96) %0, ptr noundef %1) unnamed_addr #1 align 2 {
  %3 = alloca i1, align 1
  %4 = alloca ptr, align 8
  %5 = alloca ptr, align 8
  %6 = alloca ptr, align 8
  %7 = alloca ptr, align 8
  %8 = alloca ptr, align 8
  %9 = alloca ptr, align 8
  %10 = alloca ptr, align 8
  %11 = alloca ptr, align 8
  %12 = alloca ptr, align 8
  %13 = alloca ptr, align 8
  %14 = alloca ptr, align 8
  %15 = alloca ptr, align 8
  %16 = alloca ptr, align 8
  %17 = alloca ptr, align 8
  store ptr %0, ptr %4, align 8
  store ptr %1, ptr %5, align 8
  %18 = load ptr, ptr %4, align 8
  %19 = load ptr, ptr %5, align 8
  %20 = load ptr, ptr %19, align 8
  %21 = getelementptr inbounds ptr, ptr %20, i64 4
  %22 = load ptr, ptr %21, align 8
  %23 = call noundef ptr %22(ptr noundef nonnull align 8 dereferenceable(96) %19)
  %24 = icmp eq ptr %23, null
  br i1 %24, label %25, label %26

25:                                               ; preds = %2
  store i1 false, ptr %3, align 1
  br label %208

26:                                               ; preds = %2
  %27 = call noundef ptr @_ZNK11Instruction4typeEv(ptr noundef nonnull align 8 dereferenceable(96) %18)
  %28 = call noundef i32 @_ZNK9ValueType3tagEv(ptr noundef nonnull align 8 dereferenceable(16) %27)
  switch i32 %28, label %207 [
    i32 0, label %29
    i32 1, label %54
    i32 2, label %79
    i32 3, label %106
    i32 4, label %133
    i32 6, label %170
  ]

29:                                               ; preds = %26
  %30 = call noundef ptr @_ZNK11Instruction4typeEv(ptr noundef nonnull align 8 dereferenceable(96) %18)
  %31 = load ptr, ptr %30, align 8
  %32 = getelementptr inbounds ptr, ptr %31, i64 17
  %33 = load ptr, ptr %32, align 8
  %34 = call noundef ptr %33(ptr noundef nonnull align 8 dereferenceable(16) %30)
  store ptr %34, ptr %6, align 8
  %35 = load ptr, ptr %5, align 8
  %36 = call noundef ptr @_ZNK11Instruction4typeEv(ptr noundef nonnull align 8 dereferenceable(96) %35)
  %37 = load ptr, ptr %36, align 8
  %38 = getelementptr inbounds ptr, ptr %37, i64 17
  %39 = load ptr, ptr %38, align 8
  %40 = call noundef ptr %39(ptr noundef nonnull align 8 dereferenceable(16) %36)
  store ptr %40, ptr %7, align 8
  %41 = load ptr, ptr %6, align 8
  %42 = icmp ne ptr %41, null
  br i1 %42, label %43, label %52

43:                                               ; preds = %29
  %44 = load ptr, ptr %7, align 8
  %45 = icmp ne ptr %44, null
  br i1 %45, label %46, label %52

46:                                               ; preds = %43
  %47 = load ptr, ptr %6, align 8
  %48 = call noundef i32 @_ZNK11IntConstant5valueEv(ptr noundef nonnull align 8 dereferenceable(20) %47)
  %49 = load ptr, ptr %7, align 8
  %50 = call noundef i32 @_ZNK11IntConstant5valueEv(ptr noundef nonnull align 8 dereferenceable(20) %49)
  %51 = icmp eq i32 %48, %50
  br label %52

52:                                               ; preds = %46, %43, %29
  %53 = phi i1 [ false, %43 ], [ false, %29 ], [ %51, %46 ]
  store i1 %53, ptr %3, align 1
  br label %208

54:                                               ; preds = %26
  %55 = call noundef ptr @_ZNK11Instruction4typeEv(ptr noundef nonnull align 8 dereferenceable(96) %18)
  %56 = load ptr, ptr %55, align 8
  %57 = getelementptr inbounds ptr, ptr %56, i64 18
  %58 = load ptr, ptr %57, align 8
  %59 = call noundef ptr %58(ptr noundef nonnull align 8 dereferenceable(16) %55)
  store ptr %59, ptr %8, align 8
  %60 = load ptr, ptr %5, align 8
  %61 = call noundef ptr @_ZNK11Instruction4typeEv(ptr noundef nonnull align 8 dereferenceable(96) %60)
  %62 = load ptr, ptr %61, align 8
  %63 = getelementptr inbounds ptr, ptr %62, i64 18
  %64 = load ptr, ptr %63, align 8
  %65 = call noundef ptr %64(ptr noundef nonnull align 8 dereferenceable(16) %61)
  store ptr %65, ptr %9, align 8
  %66 = load ptr, ptr %8, align 8
  %67 = icmp ne ptr %66, null
  br i1 %67, label %68, label %77

68:                                               ; preds = %54
  %69 = load ptr, ptr %9, align 8
  %70 = icmp ne ptr %69, null
  br i1 %70, label %71, label %77

71:                                               ; preds = %68
  %72 = load ptr, ptr %8, align 8
  %73 = call noundef i64 @_ZNK12LongConstant5valueEv(ptr noundef nonnull align 8 dereferenceable(24) %72)
  %74 = load ptr, ptr %9, align 8
  %75 = call noundef i64 @_ZNK12LongConstant5valueEv(ptr noundef nonnull align 8 dereferenceable(24) %74)
  %76 = icmp eq i64 %73, %75
  br label %77

77:                                               ; preds = %71, %68, %54
  %78 = phi i1 [ false, %68 ], [ false, %54 ], [ %76, %71 ]
  store i1 %78, ptr %3, align 1
  br label %208

79:                                               ; preds = %26
  %80 = call noundef ptr @_ZNK11Instruction4typeEv(ptr noundef nonnull align 8 dereferenceable(96) %18)
  %81 = load ptr, ptr %80, align 8
  %82 = getelementptr inbounds ptr, ptr %81, i64 19
  %83 = load ptr, ptr %82, align 8
  %84 = call noundef ptr %83(ptr noundef nonnull align 8 dereferenceable(16) %80)
  store ptr %84, ptr %10, align 8
  %85 = load ptr, ptr %5, align 8
  %86 = call noundef ptr @_ZNK11Instruction4typeEv(ptr noundef nonnull align 8 dereferenceable(96) %85)
  %87 = load ptr, ptr %86, align 8
  %88 = getelementptr inbounds ptr, ptr %87, i64 19
  %89 = load ptr, ptr %88, align 8
  %90 = call noundef ptr %89(ptr noundef nonnull align 8 dereferenceable(16) %86)
  store ptr %90, ptr %11, align 8
  %91 = load ptr, ptr %10, align 8
  %92 = icmp ne ptr %91, null
  br i1 %92, label %93, label %104

93:                                               ; preds = %79
  %94 = load ptr, ptr %11, align 8
  %95 = icmp ne ptr %94, null
  br i1 %95, label %96, label %104

96:                                               ; preds = %93
  %97 = load ptr, ptr %10, align 8
  %98 = call noundef float @_ZNK13FloatConstant5valueEv(ptr noundef nonnull align 8 dereferenceable(20) %97)
  %99 = call noundef i32 @_Z9jint_castf(float noundef %98)
  %100 = load ptr, ptr %11, align 8
  %101 = call noundef float @_ZNK13FloatConstant5valueEv(ptr noundef nonnull align 8 dereferenceable(20) %100)
  %102 = call noundef i32 @_Z9jint_castf(float noundef %101)
  %103 = icmp eq i32 %99, %102
  br label %104

104:                                              ; preds = %96, %93, %79
  %105 = phi i1 [ false, %93 ], [ false, %79 ], [ %103, %96 ]
  store i1 %105, ptr %3, align 1
  br label %208

106:                                              ; preds = %26
  %107 = call noundef ptr @_ZNK11Instruction4typeEv(ptr noundef nonnull align 8 dereferenceable(96) %18)
  %108 = load ptr, ptr %107, align 8
  %109 = getelementptr inbounds ptr, ptr %108, i64 20
  %110 = load ptr, ptr %109, align 8
  %111 = call noundef ptr %110(ptr noundef nonnull align 8 dereferenceable(16) %107)
  store ptr %111, ptr %12, align 8
  %112 = load ptr, ptr %5, align 8
  %113 = call noundef ptr @_ZNK11Instruction4typeEv(ptr noundef nonnull align 8 dereferenceable(96) %112)
  %114 = load ptr, ptr %113, align 8
  %115 = getelementptr inbounds ptr, ptr %114, i64 20
  %116 = load ptr, ptr %115, align 8
  %117 = call noundef ptr %116(ptr noundef nonnull align 8 dereferenceable(16) %113)
  store ptr %117, ptr %13, align 8
  %118 = load ptr, ptr %12, align 8
  %119 = icmp ne ptr %118, null
  br i1 %119, label %120, label %131

120:                                              ; preds = %106
  %121 = load ptr, ptr %13, align 8
  %122 = icmp ne ptr %121, null
  br i1 %122, label %123, label %131

123:                                              ; preds = %120
  %124 = load ptr, ptr %12, align 8
  %125 = call noundef double @_ZNK14DoubleConstant5valueEv(ptr noundef nonnull align 8 dereferenceable(24) %124)
  %126 = call noundef i64 @_Z10jlong_castd(double noundef %125)
  %127 = load ptr, ptr %13, align 8
  %128 = call noundef double @_ZNK14DoubleConstant5valueEv(ptr noundef nonnull align 8 dereferenceable(24) %127)
  %129 = call noundef i64 @_Z10jlong_castd(double noundef %128)
  %130 = icmp eq i64 %126, %129
  br label %131

131:                                              ; preds = %123, %120, %106
  %132 = phi i1 [ false, %120 ], [ false, %106 ], [ %130, %123 ]
  store i1 %132, ptr %3, align 1
  br label %208

133:                                              ; preds = %26
  %134 = call noundef ptr @_ZNK11Instruction4typeEv(ptr noundef nonnull align 8 dereferenceable(96) %18)
  %135 = load ptr, ptr %134, align 8
  %136 = getelementptr inbounds ptr, ptr %135, i64 9
  %137 = load ptr, ptr %136, align 8
  %138 = call noundef ptr %137(ptr noundef nonnull align 8 dereferenceable(16) %134)
  store ptr %138, ptr %14, align 8
  %139 = load ptr, ptr %5, align 8
  %140 = call noundef ptr @_ZNK11Instruction4typeEv(ptr noundef nonnull align 8 dereferenceable(96) %139)
  %141 = load ptr, ptr %140, align 8
  %142 = getelementptr inbounds ptr, ptr %141, i64 9
  %143 = load ptr, ptr %142, align 8
  %144 = call noundef ptr %143(ptr noundef nonnull align 8 dereferenceable(16) %140)
  store ptr %144, ptr %15, align 8
  %145 = load ptr, ptr %14, align 8
  %146 = icmp ne ptr %145, null
  br i1 %146, label %147, label %168

147:                                              ; preds = %133
  %148 = load ptr, ptr %15, align 8
  %149 = icmp ne ptr %148, null
  br i1 %149, label %150, label %168

150:                                              ; preds = %147
  %151 = load ptr, ptr %14, align 8
  %152 = call noundef zeroext i1 @_ZNK10ObjectType9is_loadedEv(ptr noundef nonnull align 8 dereferenceable(16) %151)
  br i1 %152, label %153, label %168

153:                                              ; preds = %150
  %154 = load ptr, ptr %15, align 8
  %155 = call noundef zeroext i1 @_ZNK10ObjectType9is_loadedEv(ptr noundef nonnull align 8 dereferenceable(16) %154)
  br i1 %155, label %156, label %168

156:                                              ; preds = %153
  %157 = load ptr, ptr %14, align 8
  %158 = load ptr, ptr %157, align 8
  %159 = getelementptr inbounds ptr, ptr %158, i64 28
  %160 = load ptr, ptr %159, align 8
  %161 = call noundef ptr %160(ptr noundef nonnull align 8 dereferenceable(16) %157)
  %162 = load ptr, ptr %15, align 8
  %163 = load ptr, ptr %162, align 8
  %164 = getelementptr inbounds ptr, ptr %163, i64 28
  %165 = load ptr, ptr %164, align 8
  %166 = call noundef ptr %165(ptr noundef nonnull align 8 dereferenceable(16) %162)
  %167 = icmp eq ptr %161, %166
  br label %168

168:                                              ; preds = %156, %153, %150, %147, %133
  %169 = phi i1 [ false, %153 ], [ false, %150 ], [ false, %147 ], [ false, %133 ], [ %167, %156 ]
  store i1 %169, ptr %3, align 1
  br label %208

170:                                              ; preds = %26
  %171 = call noundef ptr @_ZNK11Instruction4typeEv(ptr noundef nonnull align 8 dereferenceable(96) %18)
  %172 = load ptr, ptr %171, align 8
  %173 = getelementptr inbounds ptr, ptr %172, i64 13
  %174 = load ptr, ptr %173, align 8
  %175 = call noundef ptr %174(ptr noundef nonnull align 8 dereferenceable(16) %171)
  store ptr %175, ptr %16, align 8
  %176 = load ptr, ptr %5, align 8
  %177 = call noundef ptr @_ZNK11Instruction4typeEv(ptr noundef nonnull align 8 dereferenceable(96) %176)
  %178 = load ptr, ptr %177, align 8
  %179 = getelementptr inbounds ptr, ptr %178, i64 13
  %180 = load ptr, ptr %179, align 8
  %181 = call noundef ptr %180(ptr noundef nonnull align 8 dereferenceable(16) %177)
  store ptr %181, ptr %17, align 8
  %182 = load ptr, ptr %16, align 8
  %183 = icmp ne ptr %182, null
  br i1 %183, label %184, label %205

184:                                              ; preds = %170
  %185 = load ptr, ptr %17, align 8
  %186 = icmp ne ptr %185, null
  br i1 %186, label %187, label %205

187:                                              ; preds = %184
  %188 = load ptr, ptr %16, align 8
  %189 = call noundef zeroext i1 @_ZNK12MetadataType9is_loadedEv(ptr noundef nonnull align 8 dereferenceable(16) %188)
  br i1 %189, label %190, label %205

190:                                              ; preds = %187
  %191 = load ptr, ptr %17, align 8
  %192 = call noundef zeroext i1 @_ZNK12MetadataType9is_loadedEv(ptr noundef nonnull align 8 dereferenceable(16) %191)
  br i1 %192, label %193, label %205

193:                                              ; preds = %190
  %194 = load ptr, ptr %16, align 8
  %195 = load ptr, ptr %194, align 8
  %196 = getelementptr inbounds ptr, ptr %195, i64 28
  %197 = load ptr, ptr %196, align 8
  %198 = call noundef ptr %197(ptr noundef nonnull align 8 dereferenceable(16) %194)
  %199 = load ptr, ptr %17, align 8
  %200 = load ptr, ptr %199, align 8
  %201 = getelementptr inbounds ptr, ptr %200, i64 28
  %202 = load ptr, ptr %201, align 8
  %203 = call noundef ptr %202(ptr noundef nonnull align 8 dereferenceable(16) %199)
  %204 = icmp eq ptr %198, %203
  br label %205

205:                                              ; preds = %193, %190, %187, %184, %170
  %206 = phi i1 [ false, %190 ], [ false, %187 ], [ false, %184 ], [ false, %170 ], [ %204, %193 ]
  store i1 %206, ptr %3, align 1
  br label %208

207:                                              ; preds = %26
  store i1 false, ptr %3, align 1
  br label %208

208:                                              ; preds = %207, %205, %168, %131, %104, %77, %52, %25
  %209 = load i1, ptr %3, align 1
  ret i1 %209
}