; Function Attrs: mustprogress nounwind uwtable
define hidden noundef zeroext i1 @_ZNK8Constant8is_equalEP11Instruction(ptr nocapture noundef nonnull readonly align 8 dereferenceable(96) %0, ptr noundef %1) unnamed_addr #1 align 2 {
  %3 = load ptr, ptr %1, align 8
  %4 = getelementptr inbounds i8, ptr %3, i64 32
  %5 = load ptr, ptr %4, align 8
  %6 = tail call noundef ptr %5(ptr noundef nonnull align 8 dereferenceable(96) %1) #13
  %7 = icmp eq ptr %6, null
  br i1 %7, label %143, label %8

8:                                                ; preds = %2
  %9 = getelementptr inbounds i8, ptr %0, i64 24
  %10 = load ptr, ptr %9, align 8
  %11 = getelementptr inbounds i8, ptr %10, i64 12
  %12 = load i32, ptr %11, align 4
  switch i32 %12, label %143 [
    i32 0, label %13
    i32 1, label %32
    i32 2, label %51
    i32 3, label %70
    i32 4, label %89
    i32 6, label %116
  ]

13:                                               ; preds = %8
  %14 = load ptr, ptr %10, align 8
  %15 = getelementptr inbounds i8, ptr %14, i64 136
  %16 = load ptr, ptr %15, align 8
  %17 = tail call noundef ptr %16(ptr noundef nonnull align 8 dereferenceable(16) %10) #13
  %18 = getelementptr inbounds i8, ptr %1, i64 24
  %19 = load ptr, ptr %18, align 8
  %20 = load ptr, ptr %19, align 8
  %21 = getelementptr inbounds i8, ptr %20, i64 136
  %22 = load ptr, ptr %21, align 8
  %23 = tail call noundef ptr %22(ptr noundef nonnull align 8 dereferenceable(16) %19) #13
  %24 = icmp ne ptr %17, null
  %25 = icmp ne ptr %23, null
  %or.cond = and i1 %24, %25
  br i1 %or.cond, label %26, label %143

26:                                               ; preds = %13
  %27 = getelementptr inbounds i8, ptr %17, i64 16
  %28 = load i32, ptr %27, align 8
  %29 = getelementptr inbounds i8, ptr %23, i64 16
  %30 = load i32, ptr %29, align 8
  %31 = icmp eq i32 %28, %30
  br label %143

32:                                               ; preds = %8
  %33 = load ptr, ptr %10, align 8
  %34 = getelementptr inbounds i8, ptr %33, i64 144
  %35 = load ptr, ptr %34, align 8
  %36 = tail call noundef ptr %35(ptr noundef nonnull align 8 dereferenceable(16) %10) #13
  %37 = getelementptr inbounds i8, ptr %1, i64 24
  %38 = load ptr, ptr %37, align 8
  %39 = load ptr, ptr %38, align 8
  %40 = getelementptr inbounds i8, ptr %39, i64 144
  %41 = load ptr, ptr %40, align 8
  %42 = tail call noundef ptr %41(ptr noundef nonnull align 8 dereferenceable(16) %38) #13
  %43 = icmp ne ptr %36, null
  %44 = icmp ne ptr %42, null
  %or.cond3 = and i1 %43, %44
  br i1 %or.cond3, label %45, label %143

45:                                               ; preds = %32
  %46 = getelementptr inbounds i8, ptr %36, i64 16
  %47 = load i64, ptr %46, align 8
  %48 = getelementptr inbounds i8, ptr %42, i64 16
  %49 = load i64, ptr %48, align 8
  %50 = icmp eq i64 %47, %49
  br label %143

51:                                               ; preds = %8
  %52 = load ptr, ptr %10, align 8
  %53 = getelementptr inbounds i8, ptr %52, i64 152
  %54 = load ptr, ptr %53, align 8
  %55 = tail call noundef ptr %54(ptr noundef nonnull align 8 dereferenceable(16) %10) #13
  %56 = getelementptr inbounds i8, ptr %1, i64 24
  %57 = load ptr, ptr %56, align 8
  %58 = load ptr, ptr %57, align 8
  %59 = getelementptr inbounds i8, ptr %58, i64 152
  %60 = load ptr, ptr %59, align 8
  %61 = tail call noundef ptr %60(ptr noundef nonnull align 8 dereferenceable(16) %57) #13
  %62 = icmp ne ptr %55, null
  %63 = icmp ne ptr %61, null
  %or.cond5 = and i1 %62, %63
  br i1 %or.cond5, label %64, label %143

64:                                               ; preds = %51
  %65 = getelementptr inbounds i8, ptr %55, i64 16
  %66 = load i32, ptr %65, align 8
  %67 = getelementptr inbounds i8, ptr %61, i64 16
  %68 = load i32, ptr %67, align 8
  %69 = icmp eq i32 %66, %68
  br label %143

70:                                               ; preds = %8
  %71 = load ptr, ptr %10, align 8
  %72 = getelementptr inbounds i8, ptr %71, i64 160
  %73 = load ptr, ptr %72, align 8
  %74 = tail call noundef ptr %73(ptr noundef nonnull align 8 dereferenceable(16) %10) #13
  %75 = getelementptr inbounds i8, ptr %1, i64 24
  %76 = load ptr, ptr %75, align 8
  %77 = load ptr, ptr %76, align 8
  %78 = getelementptr inbounds i8, ptr %77, i64 160
  %79 = load ptr, ptr %78, align 8
  %80 = tail call noundef ptr %79(ptr noundef nonnull align 8 dereferenceable(16) %76) #13
  %81 = icmp ne ptr %74, null
  %82 = icmp ne ptr %80, null
  %or.cond7 = and i1 %81, %82
  br i1 %or.cond7, label %83, label %143

83:                                               ; preds = %70
  %84 = getelementptr inbounds i8, ptr %74, i64 16
  %85 = load i64, ptr %84, align 8
  %86 = getelementptr inbounds i8, ptr %80, i64 16
  %87 = load i64, ptr %86, align 8
  %88 = icmp eq i64 %85, %87
  br label %143

89:                                               ; preds = %8
  %90 = load ptr, ptr %10, align 8
  %91 = getelementptr inbounds i8, ptr %90, i64 72
  %92 = load ptr, ptr %91, align 8
  %93 = tail call noundef ptr %92(ptr noundef nonnull align 8 dereferenceable(16) %10) #13
  %94 = getelementptr inbounds i8, ptr %1, i64 24
  %95 = load ptr, ptr %94, align 8
  %96 = load ptr, ptr %95, align 8
  %97 = getelementptr inbounds i8, ptr %96, i64 72
  %98 = load ptr, ptr %97, align 8
  %99 = tail call noundef ptr %98(ptr noundef nonnull align 8 dereferenceable(16) %95) #13
  %100 = icmp ne ptr %93, null
  %101 = icmp ne ptr %99, null
  %or.cond9 = and i1 %100, %101
  br i1 %or.cond9, label %102, label %143

102:                                              ; preds = %89
  %103 = tail call noundef zeroext i1 @_ZNK10ObjectType9is_loadedEv(ptr noundef nonnull align 8 dereferenceable(16) %93) #13
  br i1 %103, label %104, label %143

104:                                              ; preds = %102
  %105 = tail call noundef zeroext i1 @_ZNK10ObjectType9is_loadedEv(ptr noundef nonnull align 8 dereferenceable(16) %99) #13
  br i1 %105, label %106, label %143

106:                                              ; preds = %104
  %107 = load ptr, ptr %93, align 8
  %108 = getelementptr inbounds i8, ptr %107, i64 224
  %109 = load ptr, ptr %108, align 8
  %110 = tail call noundef ptr %109(ptr noundef nonnull align 8 dereferenceable(16) %93) #13
  %111 = load ptr, ptr %99, align 8
  %112 = getelementptr inbounds i8, ptr %111, i64 224
  %113 = load ptr, ptr %112, align 8
  %114 = tail call noundef ptr %113(ptr noundef nonnull align 8 dereferenceable(16) %99) #13
  %115 = icmp eq ptr %110, %114
  br label %143

116:                                              ; preds = %8
  %117 = load ptr, ptr %10, align 8
  %118 = getelementptr inbounds i8, ptr %117, i64 104
  %119 = load ptr, ptr %118, align 8
  %120 = tail call noundef ptr %119(ptr noundef nonnull align 8 dereferenceable(16) %10) #13
  %121 = getelementptr inbounds i8, ptr %1, i64 24
  %122 = load ptr, ptr %121, align 8
  %123 = load ptr, ptr %122, align 8
  %124 = getelementptr inbounds i8, ptr %123, i64 104
  %125 = load ptr, ptr %124, align 8
  %126 = tail call noundef ptr %125(ptr noundef nonnull align 8 dereferenceable(16) %122) #13
  %127 = icmp ne ptr %120, null
  %128 = icmp ne ptr %126, null
  %or.cond11 = and i1 %127, %128
  br i1 %or.cond11, label %129, label %143

129:                                              ; preds = %116
  %130 = tail call noundef zeroext i1 @_ZNK12MetadataType9is_loadedEv(ptr noundef nonnull align 8 dereferenceable(16) %120) #13
  br i1 %130, label %131, label %143

131:                                              ; preds = %129
  %132 = tail call noundef zeroext i1 @_ZNK12MetadataType9is_loadedEv(ptr noundef nonnull align 8 dereferenceable(16) %126) #13
  br i1 %132, label %133, label %143

133:                                              ; preds = %131
  %134 = load ptr, ptr %120, align 8
  %135 = getelementptr inbounds i8, ptr %134, i64 224
  %136 = load ptr, ptr %135, align 8
  %137 = tail call noundef ptr %136(ptr noundef nonnull align 8 dereferenceable(16) %120) #13
  %138 = load ptr, ptr %126, align 8
  %139 = getelementptr inbounds i8, ptr %138, i64 224
  %140 = load ptr, ptr %139, align 8
  %141 = tail call noundef ptr %140(ptr noundef nonnull align 8 dereferenceable(16) %126) #13
  %142 = icmp eq ptr %137, %141
  br label %143

143:                                              ; preds = %8, %116, %129, %131, %133, %89, %102, %104, %106, %70, %83, %51, %64, %32, %45, %13, %26, %2
  %.0 = phi i1 [ false, %2 ], [ false, %13 ], [ %31, %26 ], [ false, %32 ], [ %50, %45 ], [ false, %51 ], [ %69, %64 ], [ false, %70 ], [ %88, %83 ], [ false, %104 ], [ false, %102 ], [ false, %89 ], [ %115, %106 ], [ false, %131 ], [ false, %129 ], [ false, %116 ], [ %142, %133 ], [ false, %8 ]
  ret i1 %.0
}